; Function Attrs: mustprogress nofree norecurse nosync nounwind willreturn memory(read, inaccessiblemem: none) uwtable
define internal noundef i64 @_ZL16unistrTextLengthP5UText(ptr nocapture noundef readonly %t) #8 {
entry:
  %context = getelementptr inbounds i8, ptr %t, i64 72
  %0 = load ptr, ptr %context, align 8
  %fUnion.i.i = getelementptr inbounds i8, ptr %0, i64 8
  %1 = load i16, ptr %fUnion.i.i, align 8
  %cmp.i.i = icmp slt i16 %1, 0
  %2 = ashr i16 %1, 5
  %shr.i.i = sext i16 %2 to i32
  %fLength.i = getelementptr inbounds i8, ptr %0, i64 12
  %3 = load i32, ptr %fLength.i, align 4
  %cond.i = select i1 %cmp.i.i, i32 %3, i32 %shr.i.i
  %conv = sext i32 %cond.i to i64
  ret i64 %conv
}